target datalayout = "e-m:e-p270:32:32-p271:32:32-p272:64:64-i64:64-i128:128-f80:128-n8:16:32:64-S128"
target triple = "x86_64-unknown-linux-gnu"

; Function Attrs: nounwind uwtable
define dso_local void @debugDelay(i32 noundef %usec) #0 {
entry:
  %usec.addr = alloca i32, align 4
  store i32 %usec, ptr %usec.addr, align 4
  %0 = load i32, ptr %usec.addr, align 4
  %cmp = icmp slt i32 %0, 0
  br i1 %cmp, label %if.then, label %if.end

if.then:                                          ; preds = %entry
  %call = call i32 @rand() #14
  %1 = load i32, ptr %usec.addr, align 4
  %sub = sub nsw i32 0, %1
  %rem = srem i32 %call, %sub
  %cmp1 = icmp eq i32 %rem, 0
  %cond = select i1 %cmp1, i32 1, i32 0
  store i32 %cond, ptr %usec.addr, align 4
  br label %if.end

if.end:                                           ; preds = %if.then, %entry
  %2 = load i32, ptr %usec.addr, align 4
  %tobool = icmp ne i32 %2, 0
  br i1 %tobool, label %if.then2, label %if.end4

if.then2:                                         ; preds = %if.end
  %3 = load i32, ptr %usec.addr, align 4
  %call3 = call i32 @usleep(i32 noundef %3)
  br label %if.end4

if.end4:                                          ; preds = %if.then2, %if.end
  ret void
}