; Function Attrs: nounwind uwtable
define dso_local void @debugDelay(i32 noundef %usec) local_unnamed_addr #0 {
entry:
  %cmp = icmp slt i32 %usec, 0
  br i1 %cmp, label %if.then, label %if.end

if.then:                                          ; preds = %entry
  %call = tail call i32 @rand() #22
  %sub = sub nsw i32 0, %usec
  %rem = srem i32 %call, %sub
  %cmp1 = icmp eq i32 %rem, 0
  %cond = zext i1 %cmp1 to i32
  br label %if.end

if.end:                                           ; preds = %if.then, %entry
  %usec.addr.0 = phi i32 [ %cond, %if.then ], [ %usec, %entry ]
  %tobool.not = icmp eq i32 %usec.addr.0, 0
  br i1 %tobool.not, label %if.end4, label %if.then2

if.then2:                                         ; preds = %if.end
  %call3 = tail call i32 @usleep(i32 noundef %usec.addr.0) #22
  br label %if.end4

if.end4:                                          ; preds = %if.then2, %if.end
  ret void
}